; Function Attrs: mustprogress nofree norecurse nosync nounwind memory(argmem: readwrite) uwtable
define hidden void @_ZN11OpenImageIO6v3_1_09TIFFInput18invert_photometricEiPv(ptr noundef nonnull readonly align 8 captures(none) dereferenceable(384) %0, i32 noundef %1, ptr noundef captures(none) %2) local_unnamed_addr #20 align 2 {
  %4 = getelementptr inbounds nuw i8, ptr %0, i64 72
  %5 = load i8, ptr %4, align 8, !tbaa !228
  %cond = icmp eq i8 %5, 2
  %6 = icmp sgt i32 %1, 0
  %or.cond = and i1 %cond, %6
  br i1 %or.cond, label %.lr.ph.preheader, label %.loopexit

.lr.ph.preheader:                                 ; preds = %3
  %wide.trip.count = zext nneg i32 %1 to i64
  br label %.lr.ph

.lr.ph:                                           ; preds = %.lr.ph.preheader, %.lr.ph
  %indvars.iv = phi i64 [ 0, %.lr.ph.preheader ], [ %indvars.iv.next, %.lr.ph ]
  %7 = getelementptr inbounds nuw i8, ptr %2, i64 %indvars.iv
  %8 = load i8, ptr %7, align 1, !tbaa !13
  %9 = xor i8 %8, -1
  store i8 %9, ptr %7, align 1, !tbaa !13
  %indvars.iv.next = add nuw nsw i64 %indvars.iv, 1
  %exitcond.not = icmp eq i64 %indvars.iv.next, %wide.trip.count
  br i1 %exitcond.not, label %.loopexit, label %.lr.ph, !llvm.loop !229

.loopexit:                                        ; preds = %.lr.ph, %3
  ret void
}